(lp0
(VJean Shafiroff
p1
I372
tp2
a(VMark Gilbertson
p3
I317
tp4
a(VGillian Miniter
p5
I196
tp6
a(VGeoffrey Bradfield
p7
I194
tp8
a(VMario Buatta
p9
I183
tp10
a(VAlexandra Lebenthal
p11
I181
tp12
a(VSharon Bush
p13
I165
tp14
a(VKamie Lightburn
p15
I164
tp16
a(VMichael Bloomberg
p17
I164
tp18
a(VSomers Farkas
p19
I163
tp20
a(VYaz Hernandez
p21
I161
tp22
a(VAndrew Saffir
p23
I160
tp24
a(VLucia Gordon
p25
I159
tp26
a(VAlina Cho
p27
I159
tp28
a(VDebbie Bancroft
p29
I152
tp30
a(VPatrick McMullan
p31
I148
tp32
a(VEleanora Kennedy
p33
I147
tp34
a(VAllison Aston
p35
I143
tp36
a(VBettina Zilkha
p37
I140
tp38
a(VLiliana Cavendish
p39
I140
tp40
a(VMuffie Aston
p41
I139
tp42
a(VMartha Stewart
p43
I133
tp44
a(VJamee Gregory
p45
I127
tp46
a(VBeth DeWoody
p47
I123
tp48
a(VAmy Collins
p49
I120
tp50
a(VLydia Fenet
p51
I120
tp52
a(VKaren Klopp
p53
I120
tp54
a(VJennifer Creel
p55
I117
tp56
a(VKaren LeFrak
p57
I115
tp58
a(VBarbara Tober
p59
I115
tp60
a(VDiana Taylor
p61
I114
tp62
a(VMichele Herbert
p63
I114
tp64
a(VMargo Langenberg
p65
I113
tp66
a(VPaula Zahn
p67
I112
tp68
a(VAudrey Gruss
p69
I112
tp70
a(VDeborah Norville
p71
I111
tp72
a(VNicole Miller
p73
I110
tp74
a(VChristopher Hyland
p75
I109
tp76
a(VEvelyn Lauder
p77
I108
tp78
a(VDonna Karan
p79
I108
tp80
a(VNathalie Kaplan
p81
I107
tp82
a(VGrace Meigher
p83
I107
tp84
a(VKipton Cronkite
p85
I106
tp86
a(VRosanna Scotto
p87
I105
tp88
a(VLiz Peek
p89
I104
tp90
a(VLeonard Lauder
p91
I104
tp92
a(VDennis Basso
p93
I101
tp94
a(VFern Mallis
p95
I100
tp96
a(VLisa Anastos
p97
I100
tp98
a(VBonnie Comley
p99
I99
tp100
a(VAdelina Ettelson
p101
I98
tp102
a(VAlec Baldwin
p103
I95
tp104
a(VFelicia Taylor
p105
I95
tp106
a(VSusan Shin
p107
I95
tp108
a(VAmy Hoadley
p109
I94
tp110
a(VAnka Palitz
p111
I94
tp112
a(VBarbara Regna
p113
I94
tp114
a(VRussell Simmons
p115
I93
tp116
a(VMartha Glass
p117
I92
tp118
a(VTinsley Mortimer
p119
I92
tp120
a(VHilary Ross
p121
I91
tp122
a(VPamela Fiori
p123
I91
tp124
a(VWendy Carduner
p125
I91
tp126
a(VAnnette Rickel
p127
I91
tp128
a(VAlexia Ryan
p129
I90
tp130
a(VElizabeth Stribling
p131
I89
tp132
a(VAmy McFarland
p133
I89
tp134
a(VMargaret Russell
p135
I88
tp136
a(VFe Fendi
p137
I88
tp138
a(VBette Midler
p139
I88
tp140
a(VCoralie Paul
p141
I88
tp142
a(VCynthia Lufkin
p143
I87
tp144
a(VTory Burch
p145
I87
tp146
a(VCarol Mack
p147
I85
tp148
a(VAlexandra Rose
p149
I85
tp150
a(VCristina Cuomo
p151
I85
tp152
a(VJeanne Lawrence
p153
I85
tp154
a(VCeCe Black
p155
I84
tp156
a(VDawne Grannum
p157
I84
tp158
a(VMichele Klein
p159
I84
tp160
a(VFernanda Kellogg
p161
I83
tp162
a(VMelanie Holland
p163
I83
tp164
a(VMelissa Berkelhammer
p165
I83
tp166
a(VDori Cooperman
p167
I82
tp168
a(VCassandra Seidenfeld
p169
I81
tp170
a(VJanna Bullock
p171
I81
tp172
a(VEvelyn Tompkins
p173
I80
tp174
a(VCoco Kopelman
p175
I80
tp176
a(VMary Davidson
p177
I79
tp178
a(VRoric Tobin
p179
I79
tp180
a(VGerald Loughlin
p181
I79
tp182
a(VShoshanna Gruss
p183
I79
tp184
a(VRichard Johnson
p185
I78
tp186
a(VPeggy Siegal
p187
I78
tp188
a(VDeborah Roberts
p189
I78
tp190
a(VLinda Fargo
p191
I78
tp192
a(VGeorgina Schaeffer
p193
I77
tp194
a(VStewart Lane
p195
I77
tp196
a(VSteven Stolman
p197
I76
tp198
a(VJohn Demsey
p199
I76
tp200
a.