(lp0
(VJean Shafiroff
p1
F0.0007215816884165548
tp2
a(VMark Gilbertson
p3
F0.0005349279926045712
tp4
a(VGillian Miniter
p5
F0.00043543072902239947
tp6
a(VGeoffrey Bradfield
p7
F0.0003992679838629334
tp8
a(VAlexandra Lebenthal
p9
F0.0003606462542356052
tp10
a(VAndrew Saffir
p11
F0.00032979786388354277
tp12
a(VSharon Bush
p13
F0.0003243201492115459
tp14
a(VMario Buatta
p15
F0.0003160975373388024
tp16
a(VYaz Hernandez
p17
F0.0003086591779649906
tp18
a(VSomers Farkas
p19
F0.00030369488231310287
tp20
a(VKamie Lightburn
p21
F0.0002993168868077309
tp22
a(VDebbie Bancroft
p23
F0.00029348847631762386
tp24
a(VAlina Cho
p25
F0.0002880155749595866
tp26
a(VMichael Bloomberg
p27
F0.00028625087826562986
tp28
a(VLucia Gordon
p29
F0.0002801049462939192
tp30
a(VEleanora Kennedy
p31
F0.0002769051495334213
tp32
a(VLiliana Cavendish
p33
F0.00026187561707912565
tp34
a(VBarbara Tober
p35
F0.0002497687919099903
tp36
a(VBonnie Comley
p37
F0.0002487487524163091
tp38
a(VMuffie Aston
p39
F0.0002442294722278093
tp40
a(VPatrick McMullan
p41
F0.00023817336850453908
tp42
a(VAllison Aston
p43
F0.00023226295518679948
tp44
a(VLydia Fenet
p45
F0.00023028382100466447
tp46
a(VJamee Gregory
p47
F0.0002265957364462905
tp48
a(VBettina Zilkha
p49
F0.00022592898553990923
tp50
a(VMartha Stewart
p51
F0.00022563719506825885
tp52
a(VBeth DeWoody
p53
F0.0002196873694070117
tp54
a(VChristopher Hyland
p55
F0.0002196017241512669
tp56
a(VAmy Collins
p57
F0.00021486460512804
tp58
a(VMichele Herbert
p59
F0.000211964351260994
tp60
a(VDiana Taylor
p61
F0.00021059900040526836
tp62
a(VDawne Grannum
p63
F0.0002045999591832719
tp64
a(VKaren LeFrak
p65
F0.00020406169603018494
tp66
a(VStewart Lane
p67
F0.00020348543857031542
tp68
a(VMargo Langenberg
p69
F0.00020317768926993927
tp70
a(VDonna Karan
p71
F0.00020091460288444363
tp72
a(VBarbara Regna
p73
F0.00019760847544827393
tp74
a(VElizabeth Stribling
p75
F0.00019328716829247712
tp76
a(VDaniel Benedict
p77
F0.00019321043964917582
tp78
a(VRussell Simmons
p79
F0.000189598458552407
tp80
a(VKaren Klopp
p81
F0.0001895644322146047
tp82
a(VNicole Miller
p83
F0.00018609835092035502
tp84
a(VGrace Meigher
p85
F0.00018507516037758213
tp86
a(VDeborah Norville
p87
F0.00018412687951996847
tp88
a(VKipton Cronkite
p89
F0.00018356862041885654
tp90
a(VRoric Tobin
p91
F0.00018303473628418466
tp92
a(VLiz Peek
p93
F0.0001823989158354825
tp94
a(VAudrey Gruss
p95
F0.00018175855812280418
tp96
a(VEvelyn Lauder
p97
F0.00018125090619297736
tp98
a(VDennis Basso
p99
F0.0001798614037028205
tp100
a(VFern Mallis
p101
F0.0001796694791236696
tp102
a(VPaula Zahn
p103
F0.00017797176877045425
tp104
a(VRosanna Scotto
p105
F0.00017677495708728858
tp106
a(VAnka Palitz
p107
F0.00017648394636275065
tp108
a(VJennifer Creel
p109
F0.0001760686581192614
tp110
a(VLisa Anastos
p111
F0.0001759140117464399
tp112
a(VAmy McFarland
p113
F0.00017378489204709221
tp114
a(VNathalie Kaplan
p115
F0.0001736271039282656
tp116
a(VAlec Baldwin
p117
F0.0001735265357729584
tp118
a(VAmy Hoadley
p119
F0.00017185242017950513
tp120
a(VFelicia Taylor
p121
F0.00017128044292369642
tp122
a(VLeonard Lauder
p123
F0.0001667031440579302
tp124
a(VHilary Ross
p125
F0.00016531513153461593
tp126
a(VSteven Stolman
p127
F0.000164512129269523
tp128
a(VAlexia Ryan
p129
F0.00016220573933591303
tp130
a(VSusan Shin
p131
F0.00016112725916245886
tp132
a(VAnnette Rickel
p133
F0.00015866912547088743
tp134
a(VMargo Catsimatidis
p135
F0.00015785551701516355
tp136
a(VFe Fendi
p137
F0.00015684603670377612
tp138
a(VCassandra Seidenfeld
p139
F0.00015508146792202415
tp140
a(VTinsley Mortimer
p141
F0.00015493279404218776
tp142
a(VBettina Prentice
p143
F0.00015492395879438995
tp144
a(VPamela Fiori
p145
F0.00015380993290446988
tp146
a(VGeorgina Schaeffer
p147
F0.00015308746306270447
tp148
a(VLizzie Tisch
p149
F0.00015295728511804428
tp150
a(VJohn Demsey
p151
F0.00015206793942885185
tp152
a(VCeCe Black
p153
F0.00015192486968947956
tp154
a(VKristian Laliberte
p155
F0.00015159006275842606
tp156
a(VFernanda Kellogg
p157
F0.0001514129301914167
tp158
a(VAdelina Ettelson
p159
F0.00015060744809118737
tp160
a(VSylvester Miniter
p161
F0.00014974423677635568
tp162
a(VCoco Kopelman
p163
F0.00014938312502295472
tp164
a(VDenise Rich
p165
F0.0001486483181078727
tp166
a(VMichele Klein
p167
F0.00014860875395085783
tp168
a(VAmy Phelan
p169
F0.00014773875188949385
tp170
a(VTory Burch
p171
F0.0001473226200042682
tp172
a(VBette Midler
p173
F0.0001467174996299608
tp174
a(VJanna Bullock
p175
F0.00014637822394479084
tp176
a(VCynthia Lufkin
p177
F0.00014585196822949117
tp178
a(VMary Pelt
p179
F0.00014571775928733525
tp180
a(VGregory Long
p181
F0.00014537608545271222
tp182
a(VWendy Carduner
p183
F0.00014384597228031133
tp184
a(VMargaret Russell
p185
F0.00014293626144725155
tp186
a(VPatricia Shiah
p187
F0.00014288984937348343
tp188
a(VAlexandra Rose
p189
F0.0001423314998334387
tp190
a(VDeborah Roberts
p191
F0.0001419164109698079
tp192
a(VMelissa Berkelhammer
p193
F0.00014177781834326557
tp194
a(VPeter Davis
p195
F0.0001404010820975182
tp196
a(VHunt Slonem
p197
F0.00014008896824492403
tp198
a(VAnne McInerney
p199
F0.0001399094823851852
tp200
a.