(lp0
((VSylvester Miniter
p1
VGillian Miniter
p2
tp3
I110
tp4
a((VBonnie Comley
p5
VStewart Lane
p6
tp7
I80
tp8
a((VJamee Gregory
p9
VPeter Gregory
p10
tp11
I67
tp12
a((VAndrew Saffir
p13
VDaniel Benedict
p14
tp15
I66
tp16
a((VRoric Tobin
p17
VGeoffrey Bradfield
p18
tp19
I65
tp20
a((VMartin Shafiroff
p21
VJean Shafiroff
p22
tp23
I52
tp24
a((VSomers Farkas
p25
VJonathan Farkas
p26
tp27
I52
tp28
a((VDonald Tober
p29
VBarbara Tober
p30
tp31
I51
tp32
a((VWilbur Ross
p33
VHilary Ross
p34
tp35
I49
tp36
a((VJay Diamond
p37
VAlexandra Lebenthal
p38
tp39
I48
tp40
a((VMichael Kennedy
p41
VEleanora Kennedy
p42
tp43
I46
tp44
a((VJohn Catsimatidis
p45
VMargo Catsimatidis
p46
tp47
I42
tp48
a((VLizzie Tisch
p49
VJonathan Tisch
p50
tp51
I42
tp52
a((VChappy Morris
p53
VMelissa Morris
p54
tp55
I40
tp56
a((VCampion Platt
p57
VTatiana Platt
p58
tp59
I39
tp60
a((VYaz Hernandez
p61
VValentin Hernandez
p62
tp63
I39
tp64
a((VPeter Regna
p65
VBarbara Regna
p66
tp67
I39
tp68
a((VChris Meigher
p69
VGrace Meigher
p70
tp71
I38
tp72
a((VDeborah Norville
p73
VKarl Wellner
p74
tp75
I35
tp76
a((VElizabeth Stribling
p77
VGuy Robinson
p78
tp79
I35
tp80
a((VDouglas Hannant
p81
VFrederick Anderson
p82
tp83
I30
tp84
a((VJulia Koch
p85
VDavid Koch
p86
tp87
I30
tp88
a((VArie Kopelman
p89
VCoco Kopelman
p90
tp91
I29
tp92
a((VDennis Basso
p93
VMichael Cominotto
p94
tp95
I29
tp96
a((VAnne McInerney
p97
VJay McInerney
p98
tp99
I28
tp100
a((VClo Cohen
p101
VCharles Cohen
p102
tp103
I27
tp104
a((VJohannes Huebl
p105
VOlivia Palermo
p106
tp107
I27
tp108
a((VHunt Slonem
p109
VLiliana Cavendish
p110
tp111
I24
tp112
a((VArlene Dahl
p113
VMarc Rosen
p114
tp115
I24
tp116
a((VLeonel Piraino
p117
VNina Griscom
p118
tp119
I24
tp120
a((VFernanda Kellogg
p121
VKirk Henckels
p122
tp123
I24
tp124
a((VJames Mischka
p125
VMark Badgley
p126
tp127
I24
tp128
a((VChuck Scarborough
p129
VEllen Scarborough
p130
tp131
I23
tp132
a((VAlina Cho
p133
VJohn Demsey
p134
tp135
I23
tp136
a((VAnna Safir
p137
VEleanora Kennedy
p138
tp139
I23
tp140
a((VTommy Hilfiger
p141
VDee Ocleppo
p142
tp143
I23
tp144
a((VAl Roker
p145
VDeborah Roberts
p146
tp147
I22
tp148
a((VSherrell Aston
p149
VMuffie Aston
p150
tp151
I22
tp152
a((VDonald Trump
p153
VMelania Trump
p154
tp155
I22
tp156
a((VJean Shafiroff
p157
VPatricia Shiah
p158
tp159
I22
tp160
a((VSharon Bush
p161
VJean Shafiroff
p162
tp163
I21
tp164
a((VKeytt Lundqvist
p165
VAlex Lundqvist
p166
tp167
I21
tp168
a((VOthon Prounis
p169
VKathy Prounis
p170
tp171
I21
tp172
a((VDiana Taylor
p173
VMichael Bloomberg
p174
tp175
I21
tp176
a((VLaura Slatkin
p177
VHarry Slatkin
p178
tp179
I21
tp180
a((VJudy Gilbert
p181
VRod Gilbert
p182
tp183
I20
tp184
a((VStephanie Krieger
p185
VBrian Stewart
p186
tp187
I20
tp188
a((VDan Lufkin
p189
VCynthia Lufkin
p190
tp191
I20
tp192
a((VMuffie Aston
p193
VSomers Farkas
p194
tp195
I20
tp196
a((VLiz Peek
p197
VJeff Peek
p198
tp199
I20
tp200
a((VFrancine LeFrak
p201
VRick Friedberg
p202
tp203
I20
tp204
a((VLauren Bush
p205
VDavid Lauren
p206
tp207
I19
tp208
a((VRichard Steinberg
p209
VRenee Steinberg
p210
tp211
I19
tp212
a((VCeCe Black
p213
VLee Black
p214
tp215
I19
tp216
a((VMary Davidson
p217
VMarvin Davidson
p218
tp219
I19
tp220
a((VColeman Burke
p221
VSusan Burke
p222
tp223
I19
tp224
a((VIsabel Toledo
p225
VRuben Toledo
p226
tp227
I19
tp228
a((VThorne Perkin
p229
VTatiana Perkin
p230
tp231
I19
tp232
a((VVeronica Kelly
p233
VRay Kelly
p234
tp235
I18
tp236
a((VSusan Magazine
p237
VNicholas Scoppetta
p238
tp239
I18
tp240
a((VHoward Sobel
p241
VGayle Sobel
p242
tp243
I18
tp244
a((VGillian Simonds
p245
VChristian Simonds
p246
tp247
I18
tp248
a((VDonna Soloway
p249
VRichard Soloway
p250
tp251
I18
tp252
a((VElaine Langone
p253
VKen Langone
p254
tp255
I18
tp256
a((VRichard Mishaan
p257
VMarcia Mishaan
p258
tp259
I17
tp260
a((VGeoffrey Thomas
p261
VSharon Sondes
p262
tp263
I17
tp264
a((VAnn Rapp
p265
VRoy Kean
p266
tp267
I17
tp268
a((VClaudia Lebenthal
p269
VAlexandra Lebenthal
p270
tp271
I17
tp272
a((VLucia Gordon
p273
VJean Shafiroff
p274
tp275
I16
tp276
a((VMargo Nederlander
p277
VJames Nederlander
p278
tp279
I16
tp280
a((VTony Ingrao
p281
VRandy Kemper
p282
tp283
I16
tp284
a((VNicole Miller
p285
VKim Taipale
p286
tp287
I16
tp288
a((VBarbara Bradford
p289
VRobert Bradford
p290
tp291
I16
tp292
a((VNaeem Khan
p293
VRanjana Khan
p294
tp295
I16
tp296
a((g38
VGillian Miniter
p297
tp298
I16
tp299
a((VRick Hilton
p300
VKathy Hilton
p301
tp302
I16
tp303
a((VGillian Miniter
p304
VSerena Miniter
p305
tp306
I16
tp307
a((VMelanie Wambold
p308
VJohn Wambold
p309
tp310
I16
tp311
a((VDebbie Bancroft
p312
VTiffany Dubin
p313
tp314
I15
tp315
a((VHarry Kargman
p316
VJill Kargman
p317
tp318
I15
tp319
a((VWill Cotton
p320
VRose Dergan
p321
tp322
I15
tp323
a((g277
VJimmy Nederlander
p324
tp325
I15
tp326
a((VCharlotte Ronson
p327
VAli Wise
p328
tp329
I15
tp330
a((VHeather Leeds
p331
VTom Leeds
p332
tp333
I15
tp334
a((VMatt Semino
p335
VLinette Semino
p336
tp337
I15
tp338
a((VKate Donner
p339
VAlex Donner
p340
tp341
I14
tp342
a((VPamela Cohen
p343
VNick Korniloff
p344
tp345
I14
tp346
a((VKen Starr
p347
VDiane Passage
p348
tp349
I14
tp350
a((VRichard LeFrak
p351
VKaren LeFrak
p352
tp353
I14
tp354
a((VArnie Rosenshein
p355
VPaola Rosenshein
p356
tp357
I14
tp358
a((VRamona Singer
p359
VMario Singer
p360
tp361
I14
tp362
a((g5
VLeah Lane
p363
tp364
I14
tp365
a((VGeorge Hambrecht
p366
VAndrea Fahnestock
p367
tp368
I14
tp369
a((VSamantha Yanks
p370
VDavid Yanks
p371
tp372
I14
tp373
a((VFe Fendi
p374
VPatricia Shiah
p375
tp376
I14
tp377
a((VDean Palin
p378
VRoxanne Palin
p379
tp380
I14
tp381
a((g214
VCece Black
p382
tp383
I14
tp384
a((VTina Lundgren
p385
VTerry Lundgren
p386
tp387
I14
tp388
a((VAllison Rockefeller
p389
VPeter Rockefeller
p390
tp391
I14
tp392
a((VDaniel Benedict
p393
VJohannes Huebl
p394
tp395
I14
tp396
a.